(dp0
VALLEN PHILLIP K
p1
(dp2
Vbonus
p3
F4175000.0
sVdeferral_payments
p4
F2869717.0
sVdeferred_income
p5
F-3081055.0
sVdirector_fees
p6
F0.0
sVemail_address
p7
Vphillip.allen@enron.com
p8
sVexercised_stock_options
p9
F1729541.0
sVexpenses
p10
F13868.0
sVfrom_messages
p11
F2195.0
sVfrom_poi_to_this_person
p12
F47.0
sVfrom_this_person_to_poi
p13
F65.0
sVloan_advances
p14
F0.0
sVlong_term_incentive
p15
F304805.0
sVother
p16
F152.0
sVpoi
p17
I00
sVrestricted_stock
p18
F126027.0
sVrestricted_stock_deferred
p19
F-126027.0
sVsalary
p20
F201955.0
sVshared_receipt_with_poi
p21
F1407.0
sVto_messages
p22
F2902.0
sVtotal_payments
p23
F4484442.0
sVtotal_stock_value
p24
F1729541.0
sVratio email from poi
p25
F0.016195727084769126
sVratio email to poi
p26
F0.029612756264236904
sVratio of total payment vs bonus
p27
F0.9309965431596617
sVratio of total stock vs exercised stock
p28
F1.0
ssVBADUM JAMES P
p29
(dp30
g3
F0.0
sg4
F178980.0
sg5
F0.0
sg6
F0.0
sg7
L0L
sg9
F257817.0
sg10
F3486.0
sg11
F0.0
sg12
F0.0
sg13
F0.0
sg14
F0.0
sg15
F0.0
sg16
F0.0
sg17
I00
sg18
F0.0
sg19
F0.0
sg20
F0.0
sg21
F0.0
sg22
F0.0
sg23
F182466.0
sg24
F257817.0
sg25
F0.0
sg26
F0.0
sg27
F0.0
sg28
F1.0
ssVBANNANTINE JAMES M
p31
(dp32
g3
F0.0
sg4
F0.0
sg5
F-5104.0
sg6
F0.0
sg7
Vjames.bannantine@enron.com
p33
sg9
F4046157.0
sg10
F56301.0
sg11
F29.0
sg12
F39.0
sg13
F0.0
sg14
F0.0
sg15
F0.0
sg16
F864523.0
sg17
I00
sg18
F1757552.0
sg19
F-560222.0
sg20
F477.0
sg21
F465.0
sg22
F566.0
sg23
F916197.0
sg24
F5243487.0
sg25
F0.06890459363957598
sg26
F0.0
sg27
F0.0
sg28
F0.7716538631639595
ssVBAXTER JOHN C
p34
(dp35
g3
F1200000.0
sg4
F1295738.0
sg5
F-1386055.0
sg6
F0.0
sg7
L0L
sg9
F6680544.0
sg10
F11200.0
sg11
F0.0
sg12
F0.0
sg13
F0.0
sg14
F0.0
sg15
F1586055.0
sg16
F2660303.0
sg17
I00
sg18
F3942714.0
sg19
F0.0
sg20
F267102.0
sg21
F0.0
sg22
F0.0
sg23
F5634343.0
sg24
F10623258.0
sg25
F0.0
sg26
F0.0
sg27
F0.21297957898551792
sg28
F0.6288601858299968
ssVBAY FRANKLIN R
p36
(dp37
g3
F400000.0
sg4
F260455.0
sg5
F-201641.0
sg6
F0.0
sg7
Vfrank.bay@enron.com
p38
sg9
F0.0
sg10
F129142.0
sg11
F0.0
sg12
F0.0
sg13
F0.0
sg14
F0.0
sg15
F0.0
sg16
F69.0
sg17
I00
sg18
F145796.0
sg19
F-82782.0
sg20
F239671.0
sg21
F0.0
sg22
F0.0
sg23
F827696.0
sg24
F63014.0
sg25
F0.0
sg26
F0.0
sg27
F0.48326921961686414
sg28
F0.0
ssVBAZELIDES PHILIP J
p39
(dp40
g3
F0.0
sg4
F684694.0
sg5
F0.0
sg6
F0.0
sg7
L0L
sg9
F1599641.0
sg10
F0.0
sg11
F0.0
sg12
F0.0
sg13
F0.0
sg14
F0.0
sg15
F93750.0
sg16
F874.0
sg17
I00
sg18
F0.0
sg19
F0.0
sg20
F80818.0
sg21
F0.0
sg22
F0.0
sg23
F860136.0
sg24
F1599641.0
sg25
F0.0
sg26
F0.0
sg27
F0.0
sg28
F1.0
ssVBECK SALLY W
p41
(dp42
g3
F700000.0
sg4
F0.0
sg5
F0.0
sg6
F0.0
sg7
Vsally.beck@enron.com
p43
sg9
F0.0
sg10
F37172.0
sg11
F4343.0
sg12
F144.0
sg13
F386.0
sg14
F0.0
sg15
F0.0
sg16
F566.0
sg17
I00
sg18
F126027.0
sg19
F0.0
sg20
F231330.0
sg21
F2639.0
sg22
F7315.0
sg23
F969068.0
sg24
F126027.0
sg25
F0.01968557758031442
sg26
F0.08887865530739121
sg27
F0.7223435300721931
sg28
F0.0
ssVBELDEN TIMOTHY N
p44
(dp45
g3
F5249999.0
sg4
F2144013.0
sg5
F-2334434.0
sg6
F0.0
sg7
Vtim.belden@enron.com
p46
sg9
F953136.0
sg10
F17355.0
sg11
F484.0
sg12
F228.0
sg13
F108.0
sg14
F0.0
sg15
F0.0
sg16
F210698.0
sg17
I01
sg18
F157569.0
sg19
F0.0
sg20
F213999.0
sg21
F5521.0
sg22
F7991.0
sg23
F5501630.0
sg24
F1110705.0
sg25
F0.028532098610937303
sg26
F0.2231404958677686
sg27
F0.9542624640333864
sg28
F0.8581360487258093
ssVBELFER ROBERT
p47
(dp48
g3
F0.0
sg4
F-102500.0
sg5
F0.0
sg6
F3285.0
sg7
L0L
sg9
F3285.0
sg10
F0.0
sg11
F0.0
sg12
F0.0
sg13
F0.0
sg14
F0.0
sg15
F0.0
sg16
F0.0
sg17
I00
sg18
F0.0
sg19
F44093.0
sg20
F0.0
sg21
F0.0
sg22
F0.0
sg23
F102500.0
sg24
F-44093.0
sg25
F0.0
sg26
F0.0
sg27
F0.0
sg28
F-0.07450162157258522
ssVBERBERIAN DAVID
p49
(dp50
g3
F0.0
sg4
F0.0
sg5
F0.0
sg6
F0.0
sg7
Vdavid.berberian@enron.com
p51
sg9
F1624396.0
sg10
F11892.0
sg11
F0.0
sg12
F0.0
sg13
F0.0
sg14
F0.0
sg15
F0.0
sg16
F0.0
sg17
I00
sg18
F869220.0
sg19
F0.0
sg20
F216582.0
sg21
F0.0
sg22
F0.0
sg23
F228474.0
sg24
F2493616.0
sg25
F0.0
sg26
F0.0
sg27
F0.0
sg28
F0.6514218708895034
ssVBERGSIEKER RICHARD P
p52
(dp53
g3
F250000.0
sg4
F0.0
sg5
F-485813.0
sg6
F0.0
sg7
Vrick.bergsieker@enron.com
p54
sg9
F0.0
sg10
F59175.0
sg11
F59.0
sg12
F4.0
sg13
F0.0
sg14
F0.0
sg15
F180250.0
sg16
F427316.0
sg17
I00
sg18
F659249.0
sg19
F0.0
sg20
F187922.0
sg21
F233.0
sg22
F383.0
sg23
F618850.0
sg24
F659249.0
sg25
F0.010443864229765013
sg26
F0.0
sg27
F0.4039751151329078
sg28
F0.0
ssVBHATNAGAR SANJAY
p55
(dp56
g3
F0.0
sg4
F0.0
sg5
F0.0
sg6
F137864.0
sg7
Vsanjay.bhatnagar@enron.com
p57
sg9
F2604490.0
sg10
F0.0
sg11
F29.0
sg12
F0.0
sg13
F1.0
sg14
F0.0
sg15
F0.0
sg16
F137864.0
sg17
I00
sg18
F-2604490.0
sg19
F15456290.0
sg20
F0.0
sg21
F463.0
sg22
F523.0
sg23
F15456290.0
sg24
F0.0
sg25
F0.0
sg26
F0.034482758620689655
sg27
F0.0
sg28
F0.0
ssVBIBI PHILIPPE A
p58
(dp59
g3
F1000000.0
sg4
F0.0
sg5
F0.0
sg6
F0.0
sg7
Vphilippe.bibi@enron.com
p60
sg9
F1465734.0
sg10
F38559.0
sg11
F40.0
sg12
F23.0
sg13
F8.0
sg14
F0.0
sg15
F369721.0
sg16
F425688.0
sg17
I00
sg18
F378082.0
sg19
F0.0
sg20
F213625.0
sg21
F1336.0
sg22
F1607.0
sg23
F2047593.0
sg24
F1843816.0
sg25
F0.01431238332296204
sg26
F0.2
sg27
F0.4883783056496091
sg28
F0.7949459165122768
ssVBLACHMAN JEREMY M
p61
(dp62
g3
F850000.0
sg4
F0.0
sg5
F0.0
sg6
F0.0
sg7
Vjeremy.blachman@enron.com
p63
sg9
F765313.0
sg10
F84208.0
sg11
F14.0
sg12
F25.0
sg13
F2.0
sg14
F0.0
sg15
F831809.0
sg16
F272.0
sg17
I00
sg18
F189041.0
sg19
F0.0
sg20
F248546.0
sg21
F2326.0
sg22
F2475.0
sg23
F2014835.0
sg24
F954354.0
sg25
F0.010101010101010102
sg26
F0.14285714285714285
sg27
F0.4218707735372872
sg28
F0.8019173178925221
ssVBLAKE JR. NORMAN P
p64
(dp65
g3
F0.0
sg4
F0.0
sg5
F-113784.0
sg6
F113784.0
sg7
L0L
sg9
F0.0
sg10
F1279.0
sg11
F0.0
sg12
F0.0
sg13
F0.0
sg14
F0.0
sg15
F0.0
sg16
F0.0
sg17
I00
sg18
F0.0
sg19
F0.0
sg20
F0.0
sg21
F0.0
sg22
F0.0
sg23
F1279.0
sg24
F0.0
sg25
F0.0
sg26
F0.0
sg27
F0.0
sg28
F0.0
ssVBOWEN JR RAYMOND M
p66
(dp67
g3
F1350000.0
sg4
F0.0
sg5
F-833.0
sg6
F0.0
sg7
Vraymond.bowen@enron.com
p68
sg9
F0.0
sg10
F65907.0
sg11
F27.0
sg12
F140.0
sg13
F15.0
sg14
F0.0
sg15
F974293.0
sg16
F1621.0
sg17
I01
sg18
F252055.0
sg19
F0.0
sg20
F278601.0
sg21
F1593.0
sg22
F1858.0
sg23
F2669589.0
sg24
F252055.0
sg25
F0.07534983853606028
sg26
F0.5555555555555556
sg27
F0.5056958205926081
sg28
F0.0
ssVBROWN MICHAEL
p69
(dp70
g3
F0.0
sg4
F0.0
sg5
F0.0
sg6
F0.0
sg7
Vmichael.brown@enron.com
p71
sg9
F0.0
sg10
F49288.0
sg11
F41.0
sg12
F13.0
sg13
F1.0
sg14
F0.0
sg15
F0.0
sg16
F0.0
sg17
I00
sg18
F0.0
sg19
F0.0
sg20
F0.0
sg21
F761.0
sg22
F1486.0
sg23
F49288.0
sg24
F0.0
sg25
F0.008748317631224764
sg26
F0.024390243902439025
sg27
F0.0
sg28
F0.0
ssVBUCHANAN HAROLD G
p72
(dp73
g3
F500000.0
sg4
F0.0
sg5
F0.0
sg6
F0.0
sg7
Vjohn.buchanan@enron.com
p74
sg9
F825464.0
sg10
F600.0
sg11
F125.0
sg12
F0.0
sg13
F0.0
sg14
F0.0
sg15
F304805.0
sg16
F1215.0
sg17
I00
sg18
F189041.0
sg19
F0.0
sg20
F248017.0
sg21
F23.0
sg22
F1088.0
sg23
F1054637.0
sg24
F1014505.0
sg25
F0.0
sg26
F0.0
sg27
F0.47409677453000415
sg28
F0.8136618350821336
ssVBUTTS ROBERT H
p75
(dp76
g3
F750000.0
sg4
F0.0
sg5
F-75000.0
sg6
F0.0
sg7
Vbob.butts@enron.com
p77
sg9
F0.0
sg10
F9410.0
sg11
F0.0
sg12
F0.0
sg13
F0.0
sg14
F0.0
sg15
F175000.0
sg16
F150656.0
sg17
I00
sg18
F417619.0
sg19
F0.0
sg20
F261516.0
sg21
F0.0
sg22
F0.0
sg23
F1271582.0
sg24
F417619.0
sg25
F0.0
sg26
F0.0
sg27
F0.5898164648445794
sg28
F0.0
ssVBUY RICHARD B
p78
(dp79
g3
F900000.0
sg4
F649584.0
sg5
F-694862.0
sg6
F0.0
sg7
Vrick.buy@enron.com
p80
sg9
F2542813.0
sg10
F0.0
sg11
F1053.0
sg12
F156.0
sg13
F71.0
sg14
F0.0
sg15
F769862.0
sg16
F400572.0
sg17
I00
sg18
F901657.0
sg19
F0.0
sg20
F330546.0
sg21
F2333.0
sg22
F3523.0
sg23
F2355702.0
sg24
F3444470.0
sg25
F0.04428044280442804
sg26
F0.06742640075973409
sg27
F0.38205171961479
sg28
F0.7382305550636237
ssVCALGER CHRISTOPHER F
p81
(dp82
g3
F1250000.0
sg4
F0.0
sg5
F-262500.0
sg6
F0.0
sg7
Vchristopher.calger@enron.com
p83
sg9
F0.0
sg10
F35818.0
sg11
F144.0
sg12
F199.0
sg13
F25.0
sg14
F0.0
sg15
F375304.0
sg16
F486.0
sg17
I01
sg18
F126027.0
sg19
F0.0
sg20
F240189.0
sg21
F2188.0
sg22
F2598.0
sg23
F1639297.0
sg24
F126027.0
sg25
F0.07659738260200154
sg26
F0.1736111111111111
sg27
F0.7625219835087845
sg28
F0.0
ssVCARTER REBECCA C
p84
(dp85
g3
F300000.0
sg4
F0.0
sg5
F-159792.0
sg6
F0.0
sg7
Vrebecca.carter@enron.com
p86
sg9
F0.0
sg10
F0.0
sg11
F15.0
sg12
F29.0
sg13
F7.0
sg14
F0.0
sg15
F75000.0
sg16
F540.0
sg17
I00
sg18
F307301.0
sg19
F-307301.0
sg20
F261809.0
sg21
F196.0
sg22
F312.0
sg23
F477557.0
sg24
F0.0
sg25
F0.09294871794871795
sg26
F0.4666666666666667
sg27
F0.6281972623163308
sg28
F0.0
ssVCAUSEY RICHARD A
p87
(dp88
g3
F1000000.0
sg4
F0.0
sg5
F-235000.0
sg6
F0.0
sg7
Vrichard.causey@enron.com
p89
sg9
F0.0
sg10
F30674.0
sg11
F49.0
sg12
F58.0
sg13
F12.0
sg14
F0.0
sg15
F350000.0
sg16
F307895.0
sg17
I01
sg18
F2502063.0
sg19
F0.0
sg20
F415189.0
sg21
F1585.0
sg22
F1892.0
sg23
F1868758.0
sg24
F2502063.0
sg25
F0.0306553911205074
sg26
F0.24489795918367346
sg27
F0.5351147660638778
sg28
F0.0
ssVCHAN RONNIE
p90
(dp91
g3
F0.0
sg4
F0.0
sg5
F-98784.0
sg6
F98784.0
sg7
L0L
sg9
F0.0
sg10
F0.0
sg11
F0.0
sg12
F0.0
sg13
F0.0
sg14
F0.0
sg15
F0.0
sg16
F0.0
sg17
I00
sg18
F32460.0
sg19
F-32460.0
sg20
F0.0
sg21
F0.0
sg22
F0.0
sg23
F0.0
sg24
F0.0
sg25
F0.0
sg26
F0.0
sg27
F0.0
sg28
F0.0
ssVCHRISTODOULOU DIOMEDES
p92
(dp93
g3
F0.0
sg4
F0.0
sg5
F0.0
sg6
F0.0
sg7
Vdiomedes.christodoulou@enron.com
p94
sg9
F5127155.0
sg10
F0.0
sg11
F0.0
sg12
F0.0
sg13
F0.0
sg14
F0.0
sg15
F0.0
sg16
F0.0
sg17
I00
sg18
F950730.0
sg19
F0.0
sg20
F0.0
sg21
F0.0
sg22
F0.0
sg23
F0.0
sg24
F6077885.0
sg25
F0.0
sg26
F0.0
sg27
F0.0
sg28
F0.8435755201027989
ssVCLINE KENNETH W
p95
(dp96
g3
F0.0
sg4
F0.0
sg5
F0.0
sg6
F0.0
sg7
L0L
sg9
F0.0
sg10
F0.0
sg11
F0.0
sg12
F0.0
sg13
F0.0
sg14
F0.0
sg15
F0.0
sg16
F0.0
sg17
I00
sg18
F662086.0
sg19
F-472568.0
sg20
F0.0
sg21
F0.0
sg22
F0.0
sg23
F0.0
sg24
F189518.0
sg25
F0.0
sg26
F0.0
sg27
F0.0
sg28
F0.0
ssVCOLWELL WESLEY
p97
(dp98
g3
F1200000.0
sg4
F27610.0
sg5
F-144062.0
sg6
F0.0
sg7
Vwes.colwell@enron.com
p99
sg9
F0.0
sg10
F16514.0
sg11
F40.0
sg12
F240.0
sg13
F11.0
sg14
F0.0
sg15
F0.0
sg16
F101740.0
sg17
I01
sg18
F698242.0
sg19
F0.0
sg20
F288542.0
sg21
F1132.0
sg22
F1758.0
sg23
F1490344.0
sg24
F698242.0
sg25
F0.13651877133105803
sg26
F0.275
sg27
F0.8051832328643588
sg28
F0.0
ssVCORDES WILLIAM R
p100
(dp101
g3
F0.0
sg4
F0.0
sg5
F0.0
sg6
F0.0
sg7
Vbill.cordes@enron.com
p102
sg9
F651850.0
sg10
F0.0
sg11
F12.0
sg12
F10.0
sg13
F0.0
sg14
F0.0
sg15
F0.0
sg16
F0.0
sg17
I00
sg18
F386335.0
sg19
F0.0
sg20
F0.0
sg21
F58.0
sg22
F764.0
sg23
F0.0
sg24
F1038185.0
sg25
F0.013089005235602094
sg26
F0.0
sg27
F0.0
sg28
F0.6278746080900803
ssVCOX DAVID
p103
(dp104
g3
F800000.0
sg4
F0.0
sg5
F-41250.0
sg6
F0.0
sg7
Vchip.cox@enron.com
p105
sg9
F117551.0
sg10
F27861.0
sg11
F33.0
sg12
F0.0
sg13
F4.0
sg14
F0.0
sg15
F0.0
sg16
F494.0
sg17
I00
sg18
F378082.0
sg19
F0.0
sg20
F314288.0
sg21
F71.0
sg22
F102.0
sg23
F1101393.0
sg24
F495633.0
sg25
F0.0
sg26
F0.12121212121212122
sg27
F0.7263529003725282
sg28
F0.23717347311417925
ssVCUMBERLAND MICHAEL S
p106
(dp107
g3
F325000.0
sg4
F0.0
sg5
F0.0
sg6
F0.0
sg7
L0L
sg9
F0.0
sg10
F22344.0
sg11
F0.0
sg12
F0.0
sg13
F0.0
sg14
F0.0
sg15
F275000.0
sg16
F713.0
sg17
I00
sg18
F207940.0
sg19
F0.0
sg20
F184899.0
sg21
F0.0
sg22
F0.0
sg23
F807956.0
sg24
F207940.0
sg25
F0.0
sg26
F0.0
sg27
F0.4022496274549604
sg28
F0.0
ssVDEFFNER JOSEPH M
p108
(dp109
g3
F600000.0
sg4
F0.0
sg5
F0.0
sg6
F0.0
sg7
Vjoseph.deffner@enron.com
p110
sg9
F17378.0
sg10
F41626.0
sg11
F74.0
sg12
F115.0
sg13
F4.0
sg14
F0.0
sg15
F335349.0
sg16
F25553.0
sg17
I00
sg18
F141833.0
sg19
F0.0
sg20
F206121.0
sg21
F552.0
sg22
F714.0
sg23
F1208649.0
sg24
F159211.0
sg25
F0.16106442577030813
sg26
F0.05405405405405406
sg27
F0.49642203815996205
sg28
F0.10915074963413332
ssVDELAINEY DAVID W
p111
(dp112
g3
F3000000.0
sg4
F0.0
sg5
F0.0
sg6
F0.0
sg7
Vdavid.delainey@enron.com
p113
sg9
F2291113.0
sg10
F86174.0
sg11
F3069.0
sg12
F66.0
sg13
F609.0
sg14
F0.0
sg15
F1294981.0
sg16
F1661.0
sg17
I01
sg18
F1323148.0
sg19
F0.0
sg20
F365163.0
sg21
F2097.0
sg22
F3093.0
sg23
F4747979.0
sg24
F3614261.0
sg25
F0.02133850630455868
sg26
F0.198435972629521
sg27
F0.6318477819720769
sg28
F0.6339091172441614
ssVDERRICK JR. JAMES V
p114
(dp115
g3
F800000.0
sg4
F0.0
sg5
F-1284000.0
sg6
F0.0
sg7
Vjames.derrick@enron.com
p116
sg9
F8831913.0
sg10
F51124.0
sg11
F909.0
sg12
F64.0
sg13
F20.0
sg14
F0.0
sg15
F484000.0
sg16
F7482.0
sg17
I00
sg18
F1787380.0
sg19
F-1787380.0
sg20
F492375.0
sg21
F1401.0
sg22
F2181.0
sg23
F550981.0
sg24
F8831913.0
sg25
F0.029344337459880788
sg26
F0.022002200220022004
sg27
F1.4519556935720106
sg28
F1.0
ssVDETMERING TIMOTHY J
p117
(dp118
g3
F425000.0
sg4
F875307.0
sg5
F-775241.0
sg6
F0.0
sg7
Vtimothy.detmering@enron.com
p119
sg9
F2027865.0
sg10
F52255.0
sg11
F0.0
sg12
F0.0
sg13
F0.0
sg14
F0.0
sg15
F415657.0
sg16
F1105.0
sg17
I00
sg18
F315068.0
sg19
F-315068.0
sg20
F210500.0
sg21
F0.0
sg22
F0.0
sg23
F1204583.0
sg24
F2027865.0
sg25
F0.0
sg26
F0.0
sg27
F0.3528191913716199
sg28
F1.0
ssVDIETRICH JANET R
p120
(dp121
g3
F600000.0
sg4
F0.0
sg5
F0.0
sg6
F0.0
sg7
Vjanet.dietrich@enron.com
p122
sg9
F1550019.0
sg10
F3475.0
sg11
F63.0
sg12
F305.0
sg13
F14.0
sg14
F0.0
sg15
F556416.0
sg16
F473.0
sg17
I00
sg18
F315068.0
sg19
F0.0
sg20
F250100.0
sg21
F1902.0
sg22
F2572.0
sg23
F1410464.0
sg24
F1865087.0
sg25
F0.11858475894245724
sg26
F0.2222222222222222
sg27
F0.4253919277627788
sg28
F0.8310706149364614
ssVDIMICHELE RICHARD G
p123
(dp124
g3
F1000000.0
sg4
F0.0
sg5
F0.0
sg6
F0.0
sg7
Vrichard.dimichele@enron.com
p125
sg9
F8191755.0
sg10
F35812.0
sg11
F0.0
sg12
F0.0
sg13
F0.0
sg14
F0.0
sg15
F694862.0
sg16
F374689.0
sg17
I00
sg18
F126027.0
sg19
F0.0
sg20
F262788.0
sg21
F0.0
sg22
F0.0
sg23
F2368151.0
sg24
F8317782.0
sg25
F0.0
sg26
F0.0
sg27
F0.42227037042823706
sg28
F0.9848484848484849
ssVDODSON KEITH
p126
(dp127
g3
F70000.0
sg4
F0.0
sg5
F0.0
sg6
F0.0
sg7
Vkeith.dodson@enron.com
p128
sg9
F0.0
sg10
F28164.0
sg11
F14.0
sg12
F10.0
sg13
F3.0
sg14
F0.0
sg15
F0.0
sg16
F774.0
sg17
I00
sg18
F0.0
sg19
F0.0
sg20
F221003.0
sg21
F114.0
sg22
F176.0
sg23
F319941.0
sg24
F0.0
sg25
F0.056818181818181816
sg26
F0.21428571428571427
sg27
F0.21879033946883958
sg28
F0.0
ssVDONAHUE JR JEFFREY M
p129
(dp130
g3
F800000.0
sg4
F0.0
sg5
F-300000.0
sg6
F0.0
sg7
Vjeff.donahue@enron.com
p131
sg9
F765920.0
sg10
F96268.0
sg11
F22.0
sg12
F188.0
sg13
F11.0
sg14
F0.0
sg15
F0.0
sg16
F891.0
sg17
I00
sg18
F315068.0
sg19
F0.0
sg20
F278601.0
sg21
F772.0
sg22
F865.0
sg23
F875760.0
sg24
F1080988.0
sg25
F0.21734104046242775
sg26
F0.5
sg27
F0.9134922809902256
sg28
F0.7085370050361336
ssVDUNCAN JOHN H
p132
(dp133
g3
F0.0
sg4
F0.0
sg5
F-25000.0
sg6
F102492.0
sg7
L0L
sg9
F371750.0
sg10
F0.0
sg11
F0.0
sg12
F0.0
sg13
F0.0
sg14
F0.0
sg15
F0.0
sg16
F0.0
sg17
I00
sg18
F0.0
sg19
F0.0
sg20
F0.0
sg21
F0.0
sg22
F0.0
sg23
F77492.0
sg24
F371750.0
sg25
F0.0
sg26
F0.0
sg27
F0.0
sg28
F1.0
ssVDURAN WILLIAM D
p134
(dp135
g3
F750000.0
sg4
F0.0
sg5
F0.0
sg6
F0.0
sg7
Vw.duran@enron.com
p136
sg9
F1451869.0
sg10
F25785.0
sg11
F12.0
sg12
F106.0
sg13
F3.0
sg14
F0.0
sg15
F1105218.0
sg16
F1568.0
sg17
I00
sg18
F189041.0
sg19
F0.0
sg20
F210692.0
sg21
F599.0
sg22
F904.0
sg23
F2093263.0
sg24
F1640910.0
sg25
F0.1172566371681416
sg26
F0.25
sg27
F0.3582922929416896
sg28
F0.8847950222742259
ssVECHOLS JOHN B
p137
(dp138
g3
F200000.0
sg4
F0.0
sg5
F0.0
sg6
F0.0
sg7
Vjohn.echols@enron.com
p139
sg9
F601438.0
sg10
F21530.0
sg11
F0.0
sg12
F0.0
sg13
F0.0
sg14
F0.0
sg15
F2234774.0
sg16
F53775.0
sg17
I00
sg18
F407503.0
sg19
F0.0
sg20
F182245.0
sg21
F0.0
sg22
F0.0
sg23
F2692324.0
sg24
F1008941.0
sg25
F0.0
sg26
F0.0
sg27
F0.07428526432925606
sg28
F0.5961081966140735
ssVELLIOTT STEVEN
p140
(dp141
g3
F350000.0
sg4
F0.0
sg5
F-400729.0
sg6
F0.0
sg7
Vsteven.elliott@enron.com
p142
sg9
F4890344.0
sg10
F78552.0
sg11
F0.0
sg12
F0.0
sg13
F0.0
sg14
F0.0
sg15
F0.0
sg16
F12961.0
sg17
I00
sg18
F1788391.0
sg19
F0.0
sg20
F170941.0
sg21
F0.0
sg22
F0.0
sg23
F211725.0
sg24
F6678735.0
sg25
F0.0
sg26
F0.0
sg27
F1.6530877317274766
sg28
F0.7322260877246963
ssVFALLON JAMES B
p143
(dp144
g3
F2500000.0
sg4
F0.0
sg5
F0.0
sg6
F0.0
sg7
Vjim.fallon@enron.com
p145
sg9
F940257.0
sg10
F95924.0
sg11
F75.0
sg12
F42.0
sg13
F37.0
sg14
F0.0
sg15
F374347.0
sg16
F401481.0
sg17
I00
sg18
F1392142.0
sg19
F0.0
sg20
F304588.0
sg21
F1604.0
sg22
F1755.0
sg23
F3676340.0
sg24
F2332399.0
sg25
F0.023931623931623933
sg26
F0.49333333333333335
sg27
F0.6800241544579664
sg28
F0.40312870996771993
ssVFASTOW ANDREW S
p146
(dp147
g3
F1300000.0
sg4
F0.0
sg5
F-1386055.0
sg6
F0.0
sg7
Vandrew.fastow@enron.com
p148
sg9
F0.0
sg10
F55921.0
sg11
F0.0
sg12
F0.0
sg13
F0.0
sg14
F0.0
sg15
F1736055.0
sg16
F277464.0
sg17
I01
sg18
F1794412.0
sg19
F0.0
sg20
F440698.0
sg21
F0.0
sg22
F0.0
sg23
F2424083.0
sg24
F1794412.0
sg25
F0.0
sg26
F0.0
sg27
F0.5362852674599013
sg28
F0.0
ssVFITZGERALD JAY L
p149
(dp150
g3
F350000.0
sg4
F0.0
sg5
F0.0
sg6
F0.0
sg7
Vjay.fitzgerald@enron.com
p151
sg9
F664461.0
sg10
F23870.0
sg11
F16.0
sg12
F1.0
sg13
F8.0
sg14
F0.0
sg15
F556416.0
sg16
F285414.0
sg17
I00
sg18
F956775.0
sg19
F0.0
sg20
F199157.0
sg21
F723.0
sg22
F936.0
sg23
F1414857.0
sg24
F1621236.0
sg25
F0.0010683760683760685
sg26
F0.5
sg27
F0.24737482303865338
sg28
F0.40984841195236227
ssVFOWLER PEGGY
p152
(dp153
g3
F0.0
sg4
F0.0
sg5
F0.0
sg6
F0.0
sg7
Vkulvinder.fowler@enron.com
p154
sg9
F1324578.0
sg10
F0.0
sg11
F36.0
sg12
F0.0
sg13
F0.0
sg14
F0.0
sg15
F0.0
sg16
F0.0
sg17
I00
sg18
F560170.0
sg19
F0.0
sg20
F0.0
sg21
F10.0
sg22
F517.0
sg23
F0.0
sg24
F1884748.0
sg25
F0.0
sg26
F0.0
sg27
F0.0
sg28
F0.7027878528057863
ssVFOY JOE
p155
(dp156
g3
F0.0
sg4
F181755.0
sg5
F0.0
sg6
F0.0
sg7
Vtracy.foy@enron.com
p157
sg9
F343434.0
sg10
F0.0
sg11
F13.0
sg12
F0.0
sg13
F0.0
sg14
F0.0
sg15
F0.0
sg16
F0.0
sg17
I00
sg18
F0.0
sg19
F0.0
sg20
F0.0
sg21
F2.0
sg22
F57.0
sg23
F181755.0
sg24
F343434.0
sg25
F0.0
sg26
F0.0
sg27
F0.0
sg28
F1.0
ssVFREVERT MARK A
p158
(dp159
g3
F2000000.0
sg4
F6426990.0
sg5
F-3367011.0
sg6
F0.0
sg7
Vmark.frevert@enron.com
p160
sg9
F10433518.0
sg10
F86987.0
sg11
F21.0
sg12
F242.0
sg13
F6.0
sg14
F2000000.0
sg15
F1617011.0
sg16
F7427621.0
sg17
I00
sg18
F4188667.0
sg19
F0.0
sg20
F1060932.0
sg21
F2979.0
sg22
F3275.0
sg23
F17252530.0
sg24
F14622185.0
sg25
F0.07389312977099237
sg26
F0.2857142857142857
sg27
F0.1159250266482655
sg28
F0.713540281428528
ssVFUGH JOHN L
p161
(dp162
g3
F0.0
sg4
F50591.0
sg5
F0.0
sg6
F0.0
sg7
L0L
sg9
F176378.0
sg10
F0.0
sg11
F0.0
sg12
F0.0
sg13
F0.0
sg14
F0.0
sg15
F0.0
sg16
F0.0
sg17
I00
sg18
F0.0
sg19
F0.0
sg20
F0.0
sg21
F0.0
sg22
F0.0
sg23
F50591.0
sg24
F176378.0
sg25
F0.0
sg26
F0.0
sg27
F0.0
sg28
F1.0
ssVGAHN ROBERT S
p163
(dp164
g3
F509870.0
sg4
F73122.0
sg5
F-1042.0
sg6
F0.0
sg7
L0L
sg9
F83237.0
sg10
F50080.0
sg11
F0.0
sg12
F0.0
sg13
F0.0
sg14
F0.0
sg15
F0.0
sg16
F76547.0
sg17
I00
sg18
F235370.0
sg19
F0.0
sg20
F192008.0
sg21
F0.0
sg22
F0.0
sg23
F900585.0
sg24
F318607.0
sg25
F0.0
sg26
F0.0
sg27
F0.5661542219779365
sg28
F0.2612528914932817
ssVGARLAND C KEVIN
p165
(dp166
g3
F850000.0
sg4
F0.0
sg5
F0.0
sg6
F0.0
sg7
Vkevin.garland@enron.com
p167
sg9
F636246.0
sg10
F48405.0
sg11
F44.0
sg12
F10.0
sg13
F27.0
sg14
F0.0
sg15
F375304.0
sg16
F60814.0
sg17
I00
sg18
F259907.0
sg19
F0.0
sg20
F231946.0
sg21
F178.0
sg22
F209.0
sg23
F1566469.0
sg24
F896153.0
sg25
F0.04784688995215311
sg26
F0.6136363636363636
sg27
F0.5426216541789208
sg28
F0.7099747476156415
ssVGATHMANN WILLIAM D
p168
(dp169
g3
F0.0
sg4
F0.0
sg5
F0.0
sg6
F0.0
sg7
L0L
sg9
F1753766.0
sg10
F0.0
sg11
F0.0
sg12
F0.0
sg13
F0.0
sg14
F0.0
sg15
F0.0
sg16
F0.0
sg17
I00
sg18
F264013.0
sg19
F-72419.0
sg20
F0.0
sg21
F0.0
sg22
F0.0
sg23
F0.0
sg24
F1945360.0
sg25
F0.0
sg26
F0.0
sg27
F0.0
sg28
F0.9015123164864087
ssVGIBBS DANA R
p170
(dp171
g3
F0.0
sg4
F504610.0
sg5
F0.0
sg6
F0.0
sg7
Vdana.gibbs@enron.com
p172
sg9
F2218275.0
sg10
F0.0
sg11
F12.0
sg12
F0.0
sg13
F0.0
sg14
F0.0
sg15
F461912.0
sg16
F0.0
sg17
I00
sg18
F0.0
sg19
F0.0
sg20
F0.0
sg21
F23.0
sg22
F169.0
sg23
F966522.0
sg24
F2218275.0
sg25
F0.0
sg26
F0.0
sg27
F0.0
sg28
F1.0
ssVGILLIS JOHN
p173
(dp174
g3
F0.0
sg4
F0.0
sg5
F0.0
sg6
F0.0
sg7
L0L
sg9
F9803.0
sg10
F0.0
sg11
F0.0
sg12
F0.0
sg13
F0.0
sg14
F0.0
sg15
F0.0
sg16
F0.0
sg17
I00
sg18
F75838.0
sg19
F0.0
sg20
F0.0
sg21
F0.0
sg22
F0.0
sg23
F0.0
sg24
F85641.0
sg25
F0.0
sg26
F0.0
sg27
F0.0
sg28
F0.11446620193598861
ssVGLISAN JR BEN F
p175
(dp176
g3
F600000.0
sg4
F0.0
sg5
F0.0
sg6
F0.0
sg7
Vben.glisan@enron.com
p177
sg9
F384728.0
sg10
F125978.0
sg11
F16.0
sg12
F52.0
sg13
F6.0
sg14
F0.0
sg15
F71023.0
sg16
F200308.0
sg17
I01
sg18
F393818.0
sg19
F0.0
sg20
F274975.0
sg21
F874.0
sg22
F873.0
sg23
F1272284.0
sg24
F778546.0
sg25
F0.05956471935853379
sg26
F0.375
sg27
F0.4715928204709012
sg28
F0.49416219465516487
ssVGOLD JOSEPH
p178
(dp179
g3
F750000.0
sg4
F0.0
sg5
F0.0
sg6
F0.0
sg7
Vjoe.gold@enron.com
p180
sg9
F436515.0
sg10
F0.0
sg11
F0.0
sg12
F0.0
sg13
F0.0
sg14
F0.0
sg15
F304805.0
sg16
F819288.0
sg17
I00
sg18
F441096.0
sg19
F0.0
sg20
F272880.0
sg21
F0.0
sg22
F0.0
sg23
F2146973.0
sg24
F877611.0
sg25
F0.0
sg26
F0.0
sg27
F0.34932903208377564
sg28
F0.4973900737342627
ssVGRAMM WENDY L
p181
(dp182
g3
F0.0
sg4
F0.0
sg5
F0.0
sg6
F119292.0
sg7
L0L
sg9
F0.0
sg10
F0.0
sg11
F0.0
sg12
F0.0
sg13
F0.0
sg14
F0.0
sg15
F0.0
sg16
F0.0
sg17
I00
sg18
F0.0
sg19
F0.0
sg20
F0.0
sg21
F0.0
sg22
F0.0
sg23
F119292.0
sg24
F0.0
sg25
F0.0
sg26
F0.0
sg27
F0.0
sg28
F0.0
ssVGRAY RODNEY
p183
(dp184
g3
F0.0
sg4
F93585.0
sg5
F0.0
sg6
F0.0
sg7
L0L
sg9
F0.0
sg10
F0.0
sg11
F0.0
sg12
F0.0
sg13
F0.0
sg14
F0.0
sg15
F365625.0
sg16
F680833.0
sg17
I00
sg18
F0.0
sg19
F0.0
sg20
F6615.0
sg21
F0.0
sg22
F0.0
sg23
F1146658.0
sg24
F0.0
sg25
F0.0
sg26
F0.0
sg27
F0.0
sg28
F0.0
ssVHAEDICKE MARK E
p185
(dp186
g3
F1150000.0
sg4
F2157527.0
sg5
F-934484.0
sg6
F0.0
sg7
Vmark.haedicke@enron.com
p187
sg9
F608750.0
sg10
F76169.0
sg11
F1941.0
sg12
F180.0
sg13
F61.0
sg14
F0.0
sg15
F983346.0
sg16
F52382.0
sg17
I00
sg18
F524169.0
sg19
F-329825.0
sg20
F374125.0
sg21
F1847.0
sg22
F4009.0
sg23
F3859065.0
sg24
F803094.0
sg25
F0.04489897730107259
sg26
F0.03142709943328181
sg27
F0.29799964499172726
sg28
F0.7580059121348186
ssVHANNON KEVIN P
p188
(dp189
g3
F1500000.0
sg4
F0.0
sg5
F-3117011.0
sg6
F0.0
sg7
Vkevin.hannon@enron.com
p190
sg9
F5538001.0
sg10
F34039.0
sg11
F32.0
sg12
F32.0
sg13
F21.0
sg14
F0.0
sg15
F1617011.0
sg16
F11350.0
sg17
I01
sg18
F853064.0
sg19
F0.0
sg20
F243293.0
sg21
F1035.0
sg22
F1045.0
sg23
F288682.0
sg24
F6391065.0
sg25
F0.03062200956937799
sg26
F0.65625
sg27
F5.196028848352166
sg28
F0.8665224027607292
ssVHAUG DAVID L
p191
(dp192
g3
F0.0
sg4
F0.0
sg5
F0.0
sg6
F0.0
sg7
Vdavid.haug@enron.com
p193
sg9
F0.0
sg10
F475.0
sg11
F19.0
sg12
F4.0
sg13
F7.0
sg14
F0.0
sg15
F0.0
sg16
F0.0
sg17
I00
sg18
F2217299.0
sg19
F0.0
sg20
F0.0
sg21
F471.0
sg22
F573.0
sg23
F475.0
sg24
F2217299.0
sg25
F0.006980802792321117
sg26
F0.3684210526315789
sg27
F0.0
sg28
F0.0
ssVHAYES ROBERT E
p194
(dp195
g3
F0.0
sg4
F7961.0
sg5
F0.0
sg6
F0.0
sg7
Vrobert.hayes@enron.com
p196
sg9
F0.0
sg10
F0.0
sg11
F12.0
sg12
F16.0
sg13
F0.0
sg14
F0.0
sg15
F0.0
sg16
F0.0
sg17
I00
sg18
F151418.0
sg19
F0.0
sg20
F0.0
sg21
F50.0
sg22
F504.0
sg23
F7961.0
sg24
F151418.0
sg25
F0.031746031746031744
sg26
F0.0
sg27
F0.0
sg28
F0.0
ssVHAYSLETT RODERICK J
p197
(dp198
g3
F0.0
sg4
F0.0
sg5
F0.0
sg6
F0.0
sg7
Vrod.hayslett@enron.com
p199
sg9
F0.0
sg10
F0.0
sg11
F1061.0
sg12
F35.0
sg13
F38.0
sg14
F0.0
sg15
F0.0
sg16
F0.0
sg17
I00
sg18
F346663.0
sg19
F0.0
sg20
F0.0
sg21
F571.0
sg22
F2649.0
sg23
F0.0
sg24
F346663.0
sg25
F0.01321253303133258
sg26
F0.03581526861451461
sg27
F0.0
sg28
F0.0
ssVHERMANN ROBERT J
p200
(dp201
g3
F700000.0
sg4
F0.0
sg5
F-280000.0
sg6
F0.0
sg7
Vrobert.hermann@enron.com
p202
sg9
F187500.0
sg10
F48357.0
sg11
F0.0
sg12
F0.0
sg13
F0.0
sg14
F0.0
sg15
F150000.0
sg16
F416441.0
sg17
I00
sg18
F480632.0
sg19
F0.0
sg20
F262663.0
sg21
F0.0
sg22
F0.0
sg23
F1297461.0
sg24
F668132.0
sg25
F0.0
sg26
F0.0
sg27
F0.5395152532523135
sg28
F0.2806331682960852
ssVHICKERSON GARY J
p203
(dp204
g3
F1700000.0
sg4
F0.0
sg5
F0.0
sg6
F0.0
sg7
Vgary.hickerson@enron.com
p205
sg9
F0.0
sg10
F98849.0
sg11
F27.0
sg12
F40.0
sg13
F1.0
sg14
F0.0
sg15
F69223.0
sg16
F1936.0
sg17
I00
sg18
F441096.0
sg19
F0.0
sg20
F211788.0
sg21
F900.0
sg22
F1320.0
sg23
F2081796.0
sg24
F441096.0
sg25
F0.030303030303030304
sg26
F0.037037037037037035
sg27
F0.8166025873812804
sg28
F0.0
ssVHIRKO JOSEPH
p206
(dp207
g3
F0.0
sg4
F10259.0
sg5
F0.0
sg6
F0.0
sg7
Vjoe.hirko@enron.com
p208
sg9
F30766064.0
sg10
F77978.0
sg11
F0.0
sg12
F0.0
sg13
F0.0
sg14
F0.0
sg15
F0.0
sg16
F2856.0
sg17
I01
sg18
F0.0
sg19
F0.0
sg20
F0.0
sg21
F0.0
sg22
F0.0
sg23
F91093.0
sg24
F30766064.0
sg25
F0.0
sg26
F0.0
sg27
F0.0
sg28
F1.0
ssVHORTON STANLEY C
p209
(dp210
g3
F0.0
sg4
F3131860.0
sg5
F0.0
sg6
F0.0
sg7
Vstanley.horton@enron.com
p211
sg9
F5210569.0
sg10
F0.0
sg11
F1073.0
sg12
F44.0
sg13
F15.0
sg14
F0.0
sg15
F0.0
sg16
F0.0
sg17
I00
sg18
F2046079.0
sg19
F0.0
sg20
F0.0
sg21
F1074.0
sg22
F2350.0
sg23
F3131860.0
sg24
F7256648.0
sg25
F0.01872340425531915
sg26
F0.013979496738117428
sg27
F0.0
sg28
F0.7180407538025821
ssVHUGHES JAMES A
p212
(dp213
g3
F0.0
sg4
F0.0
sg5
F0.0
sg6
F0.0
sg7
Vjames.hughes@enron.com
p214
sg9
F754966.0
sg10
F0.0
sg11
F34.0
sg12
F35.0
sg13
F5.0
sg14
F0.0
sg15
F0.0
sg16
F0.0
sg17
I00
sg18
F363428.0
sg19
F0.0
sg20
F0.0
sg21
F589.0
sg22
F719.0
sg23
F0.0
sg24
F1118394.0
sg25
F0.048678720445062586
sg26
F0.14705882352941177
sg27
F0.0
sg28
F0.6750447516706992
ssVHUMPHREY GENE E
p215
(dp216
g3
F0.0
sg4
F2964506.0
sg5
F0.0
sg6
F0.0
sg7
Vgene.humphrey@enron.com
p217
sg9
F2282768.0
sg10
F4994.0
sg11
F17.0
sg12
F10.0
sg13
F17.0
sg14
F0.0
sg15
F0.0
sg16
F0.0
sg17
I00
sg18
F0.0
sg19
F0.0
sg20
F130724.0
sg21
F119.0
sg22
F128.0
sg23
F3100224.0
sg24
F2282768.0
sg25
F0.078125
sg26
F1.0
sg27
F0.0
sg28
F1.0
ssVIZZO LAWRENCE L
p218
(dp219
g3
F0.0
sg4
F0.0
sg5
F0.0
sg6
F0.0
sg7
Vlarry.izzo@enron.com
p220
sg9
F2165172.0
sg10
F28093.0
sg11
F19.0
sg12
F28.0
sg13
F5.0
sg14
F0.0
sg15
F312500.0
sg16
F1553729.0
sg17
I00
sg18
F3654808.0
sg19
F0.0
sg20
F85274.0
sg21
F437.0
sg22
F496.0
sg23
F1979596.0
sg24
F5819980.0
sg25
F0.056451612903225805
sg26
F0.2631578947368421
sg27
F0.0
sg28
F0.3720239588452194
ssVJACKSON CHARLENE R
p221
(dp222
g3
F250000.0
sg4
F0.0
sg5
F0.0
sg6
F0.0
sg7
Vcharlene.jackson@enron.com
p223
sg9
F185063.0
sg10
F10181.0
sg11
F56.0
sg12
F25.0
sg13
F19.0
sg14
F0.0
sg15
F0.0
sg16
F2435.0
sg17
I00
sg18
F540672.0
sg19
F0.0
sg20
F288558.0
sg21
F117.0
sg22
F258.0
sg23
F551174.0
sg24
F725735.0
sg25
F0.09689922480620156
sg26
F0.3392857142857143
sg27
F0.453577273238578
sg28
F0.25500079230021977
ssVJAEDICKE ROBERT
p224
(dp225
g3
F0.0
sg4
F0.0
sg5
F-25000.0
sg6
F108750.0
sg7
L0L
sg9
F431750.0
sg10
F0.0
sg11
F0.0
sg12
F0.0
sg13
F0.0
sg14
F0.0
sg15
F0.0
sg16
F0.0
sg17
I00
sg18
F44093.0
sg19
F-44093.0
sg20
F0.0
sg21
F0.0
sg22
F0.0
sg23
F83750.0
sg24
F431750.0
sg25
F0.0
sg26
F0.0
sg27
F0.0
sg28
F1.0
ssVKAMINSKI WINCENTY J
p226
(dp227
g3
F400000.0
sg4
F0.0
sg5
F0.0
sg6
F0.0
sg7
Vvince.kaminski@enron.com
p228
sg9
F850010.0
sg10
F83585.0
sg11
F14368.0
sg12
F41.0
sg13
F171.0
sg14
F0.0
sg15
F323466.0
sg16
F4669.0
sg17
I00
sg18
F126027.0
sg19
F0.0
sg20
F275101.0
sg21
F583.0
sg22
F4607.0
sg23
F1086821.0
sg24
F976037.0
sg25
F0.008899500759713479
sg26
F0.011901447661469933
sg27
F0.368045887961311
sg28
F0.8708788703706929
ssVKEAN STEVEN J
p229
(dp230
g3
F1000000.0
sg4
F0.0
sg5
F0.0
sg6
F0.0
sg7
Vsteven.kean@enron.com
p231
sg9
F2022048.0
sg10
F41953.0
sg11
F6759.0
sg12
F140.0
sg13
F387.0
sg14
F0.0
sg15
F300000.0
sg16
F1231.0
sg17
I00
sg18
F4131594.0
sg19
F0.0
sg20
F404338.0
sg21
F3639.0
sg22
F12754.0
sg23
F1747522.0
sg24
F6153642.0
sg25
F0.010976948408342482
sg26
F0.05725699067909454
sg27
F0.5722388616566773
sg28
F0.32859370109603386
ssVKISHKILL JOSEPH G
p232
(dp233
g3
F0.0
sg4
F0.0
sg5
F-51042.0
sg6
F0.0
sg7
Vjoe.kishkill@enron.com
p234
sg9
F0.0
sg10
F116335.0
sg11
F0.0
sg12
F0.0
sg13
F0.0
sg14
F0.0
sg15
F0.0
sg16
F465357.0
sg17
I00
sg18
F1034346.0
sg19
F0.0
sg20
F174246.0
sg21
F0.0
sg22
F0.0
sg23
F704896.0
sg24
F1034346.0
sg25
F0.0
sg26
F0.0
sg27
F0.0
sg28
F0.0
ssVKITCHEN LOUISE
p235
(dp236
g3
F3100000.0
sg4
F0.0
sg5
F0.0
sg6
F0.0
sg7
Vlouise.kitchen@enron.com
p237
sg9
F81042.0
sg10
F5774.0
sg11
F1728.0
sg12
F251.0
sg13
F194.0
sg14
F0.0
sg15
F0.0
sg16
F93925.0
sg17
I00
sg18
F466101.0
sg19
F0.0
sg20
F271442.0
sg21
F3669.0
sg22
F8305.0
sg23
F3471141.0
sg24
F547143.0
sg25
F0.030222757375075255
sg26
F0.11226851851851852
sg27
F0.8930780973748977
sg28
F0.14811849918577044
ssVKOENIG MARK E
p238
(dp239
g3
F700000.0
sg4
F0.0
sg5
F0.0
sg6
F0.0
sg7
Vmark.koenig@enron.com
p240
sg9
F671737.0
sg10
F127017.0
sg11
F61.0
sg12
F53.0
sg13
F15.0
sg14
F0.0
sg15
F300000.0
sg16
F150458.0
sg17
I01
sg18
F1248318.0
sg19
F0.0
sg20
F309946.0
sg21
F2271.0
sg22
F2374.0
sg23
F1587421.0
sg24
F1920055.0
sg25
F0.02232518955349621
sg26
F0.2459016393442623
sg27
F0.44096682606567505
sg28
F0.3498529990026327
ssVKOPPER MICHAEL J
p241
(dp242
g3
F800000.0
sg4
F0.0
sg5
F0.0
sg6
F0.0
sg7
Vmichael.kopper@enron.com
p243
sg9
F0.0
sg10
F118134.0
sg11
F0.0
sg12
F0.0
sg13
F0.0
sg14
F0.0
sg15
F602671.0
sg16
F907502.0
sg17
I01
sg18
F985032.0
sg19
F0.0
sg20
F224305.0
sg21
F0.0
sg22
F0.0
sg23
F2652612.0
sg24
F985032.0
sg25
F0.0
sg26
F0.0
sg27
F0.30158952760524343
sg28
F0.0
ssVLAVORATO JOHN J
p244
(dp245
g3
F8000000.0
sg4
F0.0
sg5
F0.0
sg6
F0.0
sg7
Vjohn.lavorato@enron.com
p246
sg9
F4158995.0
sg10
F49537.0
sg11
F2585.0
sg12
F528.0
sg13
F411.0
sg14
F0.0
sg15
F2035380.0
sg16
F1552.0
sg17
I00
sg18
F1008149.0
sg19
F0.0
sg20
F339288.0
sg21
F3962.0
sg22
F7259.0
sg23
F10425757.0
sg24
F5167144.0
sg25
F0.07273729163796666
sg26
F0.15899419729206962
sg27
F0.767330372269371
sg28
F0.80489241252034
ssVLAY KENNETH L
p247
(dp248
g3
F7000000.0
sg4
F202911.0
sg5
F-300000.0
sg6
F0.0
sg7
Vkenneth.lay@enron.com
p249
sg9
F34348384.0
sg10
F99832.0
sg11
F36.0
sg12
F123.0
sg13
F16.0
sg14
F81525000.0
sg15
F3600000.0
sg16
F10359729.0
sg17
I01
sg18
F14761694.0
sg19
F0.0
sg20
F1072321.0
sg21
F2411.0
sg22
F4273.0
sg23
F103559793.0
sg24
F49110078.0
sg25
F0.028785396676807865
sg26
F0.4444444444444444
sg27
F0.06759380061719514
sg28
F0.6994161972212709
ssVLEFF DANIEL P
p250
(dp251
g3
F1000000.0
sg4
F0.0
sg5
F0.0
sg6
F0.0
sg7
Vdan.leff@enron.com
p252
sg9
F0.0
sg10
F0.0
sg11
F63.0
sg12
F67.0
sg13
F14.0
sg14
F0.0
sg15
F1387399.0
sg16
F3083.0
sg17
I00
sg18
F360528.0
sg19
F0.0
sg20
F273746.0
sg21
F2672.0
sg22
F2822.0
sg23
F2664228.0
sg24
F360528.0
sg25
F0.02374202693125443
sg26
F0.2222222222222222
sg27
F0.3753432514034084
sg28
F0.0
ssVLEMAISTRE CHARLES
p253
(dp254
g3
F0.0
sg4
F0.0
sg5
F-25000.0
sg6
F112492.0
sg7
L0L
sg9
F412878.0
sg10
F0.0
sg11
F0.0
sg12
F0.0
sg13
F0.0
sg14
F0.0
sg15
F0.0
sg16
F0.0
sg17
I00
sg18
F0.0
sg19
F0.0
sg20
F0.0
sg21
F0.0
sg22
F0.0
sg23
F87492.0
sg24
F412878.0
sg25
F0.0
sg26
F0.0
sg27
F0.0
sg28
F1.0
ssVLEWIS RICHARD
p255
(dp256
g3
F0.0
sg4
F0.0
sg5
F0.0
sg6
F0.0
sg7
Vrichard.lewis@enron.com
p257
sg9
F850477.0
sg10
F0.0
sg11
F26.0
sg12
F10.0
sg13
F0.0
sg14
F0.0
sg15
F0.0
sg16
F0.0
sg17
I00
sg18
F0.0
sg19
F0.0
sg20
F0.0
sg21
F739.0
sg22
F952.0
sg23
F0.0
sg24
F850477.0
sg25
F0.01050420168067227
sg26
F0.0
sg27
F0.0
sg28
F1.0
ssVLINDHOLM TOD A
p258
(dp259
g3
F200000.0
sg4
F204075.0
sg5
F0.0
sg6
F0.0
sg7
Vtod.lindholm@enron.com
p260
sg9
F2549361.0
sg10
F57727.0
sg11
F0.0
sg12
F0.0
sg13
F0.0
sg14
F0.0
sg15
F175000.0
sg16
F2630.0
sg17
I00
sg18
F514847.0
sg19
F0.0
sg20
F236457.0
sg21
F0.0
sg22
F0.0
sg23
F875889.0
sg24
F3064208.0
sg25
F0.0
sg26
F0.0
sg27
F0.22833943570475254
sg28
F0.8319804008083003
ssVLOCKHART EUGENE E
p261
(dp262
g3
F0.0
sg4
F0.0
sg5
F0.0
sg6
F0.0
sg7
L0L
sg9
F0.0
sg10
F0.0
sg11
F0.0
sg12
F0.0
sg13
F0.0
sg14
F0.0
sg15
F0.0
sg16
F0.0
sg17
I00
sg18
F0.0
sg19
F0.0
sg20
F0.0
sg21
F0.0
sg22
F0.0
sg23
F0.0
sg24
F0.0
sg25
F0.0
sg26
F0.0
sg27
F0.0
sg28
F0.0
ssVLOWRY CHARLES P
p263
(dp264
g3
F0.0
sg4
F0.0
sg5
F0.0
sg6
F0.0
sg7
L0L
sg9
F372205.0
sg10
F0.0
sg11
F0.0
sg12
F0.0
sg13
F0.0
sg14
F0.0
sg15
F0.0
sg16
F0.0
sg17
I00
sg18
F153686.0
sg19
F-153686.0
sg20
F0.0
sg21
F0.0
sg22
F0.0
sg23
F0.0
sg24
F372205.0
sg25
F0.0
sg26
F0.0
sg27
F0.0
sg28
F1.0
ssVMARTIN AMANDA K
p265
(dp266
g3
F0.0
sg4
F85430.0
sg5
F0.0
sg6
F0.0
sg7
Va..martin@enron.com
p267
sg9
F2070306.0
sg10
F8211.0
sg11
F230.0
sg12
F8.0
sg13
F0.0
sg14
F0.0
sg15
F5145434.0
sg16
F2818454.0
sg17
I00
sg18
F0.0
sg19
F0.0
sg20
F349487.0
sg21
F477.0
sg22
F1522.0
sg23
F8407016.0
sg24
F2070306.0
sg25
F0.005256241787122208
sg26
F0.0
sg27
F0.0
sg28
F1.0
ssVMCCARTY DANNY J
p268
(dp269
g3
F0.0
sg4
F0.0
sg5
F0.0
sg6
F0.0
sg7
Vdanny.mccarty@enron.com
p270
sg9
F664375.0
sg10
F0.0
sg11
F215.0
sg12
F25.0
sg13
F2.0
sg14
F0.0
sg15
F0.0
sg16
F0.0
sg17
I00
sg18
F94556.0
sg19
F0.0
sg20
F0.0
sg21
F508.0
sg22
F1433.0
sg23
F0.0
sg24
F758931.0
sg25
F0.017445917655268667
sg26
F0.009302325581395349
sg27
F0.0
sg28
F0.8754089633971995
ssVMCCLELLAN GEORGE
p271
(dp272
g3
F900000.0
sg4
F0.0
sg5
F-125000.0
sg6
F0.0
sg7
Vgeorge.mcclellan@enron.com
p273
sg9
F506765.0
sg10
F228763.0
sg11
F49.0
sg12
F52.0
sg13
F0.0
sg14
F0.0
sg15
F0.0
sg16
F51587.0
sg17
I00
sg18
F441096.0
sg19
F0.0
sg20
F263413.0
sg21
F1469.0
sg22
F1744.0
sg23
F1318763.0
sg24
F947861.0
sg25
F0.02981651376146789
sg26
F0.0
sg27
F0.6824577274309334
sg28
F0.534640627686971
ssVMCCONNELL MICHAEL S
p274
(dp275
g3
F1100000.0
sg4
F0.0
sg5
F0.0
sg6
F0.0
sg7
Vmike.mcconnell@enron.com
p276
sg9
F1623010.0
sg10
F81364.0
sg11
F2742.0
sg12
F92.0
sg13
F194.0
sg14
F0.0
sg15
F554422.0
sg16
F540.0
sg17
I00
sg18
F1478269.0
sg19
F0.0
sg20
F365038.0
sg21
F2189.0
sg22
F3329.0
sg23
F2101364.0
sg24
F3101279.0
sg25
F0.02763592670471613
sg26
F0.07075127644055434
sg27
F0.5234695178940917
sg28
F0.5233356947246603
ssVMCDONALD REBECCA
p277
(dp278
g3
F0.0
sg4
F0.0
sg5
F0.0
sg6
F0.0
sg7
Vrebecca.mcdonald@enron.com
p279
sg9
F757301.0
sg10
F0.0
sg11
F13.0
sg12
F54.0
sg13
F1.0
sg14
F0.0
sg15
F0.0
sg16
F0.0
sg17
I00
sg18
F934065.0
sg19
F0.0
sg20
F0.0
sg21
F720.0
sg22
F894.0
sg23
F0.0
sg24
F1691366.0
sg25
F0.06040268456375839
sg26
F0.07692307692307693
sg27
F0.0
sg28
F0.4477451953036776
ssVMCMAHON JEFFREY
p280
(dp281
g3
F2600000.0
sg4
F0.0
sg5
F0.0
sg6
F0.0
sg7
Vjeffrey.mcmahon@enron.com
p282
sg9
F1104054.0
sg10
F137108.0
sg11
F48.0
sg12
F58.0
sg13
F26.0
sg14
F0.0
sg15
F694862.0
sg16
F297353.0
sg17
I00
sg18
F558801.0
sg19
F0.0
sg20
F370448.0
sg21
F2228.0
sg22
F2355.0
sg23
F4099771.0
sg24
F1662855.0
sg25
F0.024628450106157114
sg26
F0.5416666666666666
sg27
F0.6341817628350461
sg28
F0.6639508556067727
ssVMENDELSOHN JOHN
p283
(dp284
g3
F0.0
sg4
F0.0
sg5
F-103750.0
sg6
F103750.0
sg7
L0L
sg9
F0.0
sg10
F148.0
sg11
F0.0
sg12
F0.0
sg13
F0.0
sg14
F0.0
sg15
F0.0
sg16
F0.0
sg17
I00
sg18
F0.0
sg19
F0.0
sg20
F0.0
sg21
F0.0
sg22
F0.0
sg23
F148.0
sg24
F0.0
sg25
F0.0
sg26
F0.0
sg27
F0.0
sg28
F0.0
ssVMETTS MARK
p285
(dp286
g3
F600000.0
sg4
F0.0
sg5
F0.0
sg6
F0.0
sg7
Vmark.metts@enron.com
p287
sg9
F0.0
sg10
F94299.0
sg11
F29.0
sg12
F38.0
sg13
F1.0
sg14
F0.0
sg15
F0.0
sg16
F1740.0
sg17
I00
sg18
F585062.0
sg19
F0.0
sg20
F365788.0
sg21
F702.0
sg22
F807.0
sg23
F1061827.0
sg24
F585062.0
sg25
F0.04708798017348203
sg26
F0.034482758620689655
sg27
F0.5650638004119315
sg28
F0.0
ssVMEYER JEROME J
p288
(dp289
g3
F0.0
sg4
F0.0
sg5
F-38346.0
sg6
F38346.0
sg7
L0L
sg9
F0.0
sg10
F2151.0
sg11
F0.0
sg12
F0.0
sg13
F0.0
sg14
F0.0
sg15
F0.0
sg16
F0.0
sg17
I00
sg18
F0.0
sg19
F0.0
sg20
F0.0
sg21
F0.0
sg22
F0.0
sg23
F2151.0
sg24
F0.0
sg25
F0.0
sg26
F0.0
sg27
F0.0
sg28
F0.0
ssVMEYER ROCKFORD G
p290
(dp291
g3
F0.0
sg4
F1848227.0
sg5
F0.0
sg6
F0.0
sg7
Vrockford.meyer@enron.com
p292
sg9
F493489.0
sg10
F0.0
sg11
F28.0
sg12
F0.0
sg13
F0.0
sg14
F0.0
sg15
F0.0
sg16
F0.0
sg17
I00
sg18
F462384.0
sg19
F0.0
sg20
F0.0
sg21
F22.0
sg22
F232.0
sg23
F1848227.0
sg24
F955873.0
sg25
F0.0
sg26
F0.0
sg27
F0.0
sg28
F0.5162704668925684
ssVMORAN MICHAEL P
p293
(dp294
g3
F0.0
sg4
F0.0
sg5
F0.0
sg6
F0.0
sg7
Vmichael.moran@enron.com
p295
sg9
F59539.0
sg10
F0.0
sg11
F19.0
sg12
F0.0
sg13
F0.0
sg14
F0.0
sg15
F0.0
sg16
F0.0
sg17
I00
sg18
F161602.0
sg19
F0.0
sg20
F0.0
sg21
F127.0
sg22
F672.0
sg23
F0.0
sg24
F221141.0
sg25
F0.0
sg26
F0.0
sg27
F0.0
sg28
F0.2692354651557151
ssVMORDAUNT KRISTINA M
p296
(dp297
g3
F325000.0
sg4
F0.0
sg5
F0.0
sg6
F0.0
sg7
Vkristina.mordaunt@enron.com
p298
sg9
F0.0
sg10
F35018.0
sg11
F0.0
sg12
F0.0
sg13
F0.0
sg14
F0.0
sg15
F0.0
sg16
F1411.0
sg17
I00
sg18
F208510.0
sg19
F0.0
sg20
F267093.0
sg21
F0.0
sg22
F0.0
sg23
F628522.0
sg24
F208510.0
sg25
F0.0
sg26
F0.0
sg27
F0.5170861163173286
sg28
F0.0
ssVMULLER MARK S
p299
(dp300
g3
F1100000.0
sg4
F842924.0
sg5
F-719000.0
sg6
F0.0
sg7
Vs..muller@enron.com
p301
sg9
F1056320.0
sg10
F0.0
sg11
F16.0
sg12
F12.0
sg13
F0.0
sg14
F0.0
sg15
F1725545.0
sg16
F947.0
sg17
I00
sg18
F360528.0
sg19
F0.0
sg20
F251654.0
sg21
F114.0
sg22
F136.0
sg23
F3202070.0
sg24
F1416848.0
sg25
F0.08823529411764706
sg26
F0.0
sg27
F0.3435277804670104
sg28
F0.7455422176549636
ssVMURRAY JULIA H
p302
(dp303
g3
F400000.0
sg4
F0.0
sg5
F0.0
sg6
F0.0
sg7
Vjulia.murray@enron.com
p304
sg9
F400478.0
sg10
F57580.0
sg11
F45.0
sg12
F11.0
sg13
F2.0
sg14
F0.0
sg15
F125000.0
sg16
F330.0
sg17
I00
sg18
F196983.0
sg19
F0.0
sg20
F229284.0
sg21
F395.0
sg22
F2192.0
sg23
F812194.0
sg24
F597461.0
sg25
F0.005018248175182482
sg26
F0.044444444444444446
sg27
F0.4924931728133919
sg28
F0.6702998187329382
ssVNOLES JAMES L
p305
(dp306
g3
F0.0
sg4
F774401.0
sg5
F0.0
sg6
F0.0
sg7
L0L
sg9
F0.0
sg10
F0.0
sg11
F0.0
sg12
F0.0
sg13
F0.0
sg14
F0.0
sg15
F0.0
sg16
F0.0
sg17
I00
sg18
F463261.0
sg19
F-94556.0
sg20
F0.0
sg21
F0.0
sg22
F0.0
sg23
F774401.0
sg24
F368705.0
sg25
F0.0
sg26
F0.0
sg27
F0.0
sg28
F0.0
ssVOLSON CINDY K
p307
(dp308
g3
F750000.0
sg4
F77716.0
sg5
F0.0
sg6
F0.0
sg7
Vcindy.olson@enron.com
p309
sg9
F1637034.0
sg10
F63791.0
sg11
F52.0
sg12
F20.0
sg13
F15.0
sg14
F0.0
sg15
F100000.0
sg16
F972.0
sg17
I00
sg18
F969729.0
sg19
F0.0
sg20
F329078.0
sg21
F856.0
sg22
F1184.0
sg23
F1321557.0
sg24
F2606763.0
sg25
F0.016891891891891893
sg26
F0.28846153846153844
sg27
F0.5675124114964394
sg28
F0.6279949500587511
ssVOVERDYKE JR JERE C
p310
(dp311
g3
F0.0
sg4
F0.0
sg5
F0.0
sg6
F0.0
sg7
Vjere.overdyke@enron.com
p312
sg9
F5266578.0
sg10
F18834.0
sg11
F0.0
sg12
F0.0
sg13
F0.0
sg14
F0.0
sg15
F135836.0
sg16
F176.0
sg17
I00
sg18
F2041016.0
sg19
F0.0
sg20
F94941.0
sg21
F0.0
sg22
F0.0
sg23
F249787.0
sg24
F7307594.0
sg25
F0.0
sg26
F0.0
sg27
F0.0
sg28
F0.7206993163550137
ssVPAI LOU L
p313
(dp314
g3
F1000000.0
sg4
F0.0
sg5
F0.0
sg6
F0.0
sg7
Vlou.pai@enron.com
p315
sg9
F15364167.0
sg10
F32047.0
sg11
F0.0
sg12
F0.0
sg13
F0.0
sg14
F0.0
sg15
F0.0
sg16
F1829457.0
sg17
I00
sg18
F8453763.0
sg19
F0.0
sg20
F261879.0
sg21
F0.0
sg22
F0.0
sg23
F3123383.0
sg24
F23817930.0
sg25
F0.0
sg26
F0.0
sg27
F0.3201656665224854
sg28
F0.6450672665508715
ssVPEREIRA PAULO V. FERRAZ
p316
(dp317
g3
F0.0
sg4
F0.0
sg5
F-101250.0
sg6
F101250.0
sg7
L0L
sg9
F0.0
sg10
F27942.0
sg11
F0.0
sg12
F0.0
sg13
F0.0
sg14
F0.0
sg15
F0.0
sg16
F0.0
sg17
I00
sg18
F0.0
sg19
F0.0
sg20
F0.0
sg21
F0.0
sg22
F0.0
sg23
F27942.0
sg24
F0.0
sg25
F0.0
sg26
F0.0
sg27
F0.0
sg28
F0.0
ssVPICKERING MARK R
p318
(dp319
g3
F300000.0
sg4
F0.0
sg5
F0.0
sg6
F0.0
sg7
Vmark.pickering@enron.com
p320
sg9
F28798.0
sg10
F31653.0
sg11
F67.0
sg12
F7.0
sg13
F0.0
sg14
F400000.0
sg15
F0.0
sg16
F0.0
sg17
I00
sg18
F0.0
sg19
F0.0
sg20
F655037.0
sg21
F728.0
sg22
F898.0
sg23
F1386690.0
sg24
F28798.0
sg25
F0.0077951002227171495
sg26
F0.0
sg27
F0.21634251346732147
sg28
F1.0
ssVPIPER GREGORY F
p321
(dp322
g3
F400000.0
sg4
F1130036.0
sg5
F-33333.0
sg6
F0.0
sg7
Vgreg.piper@enron.com
p323
sg9
F880290.0
sg10
F43057.0
sg11
F222.0
sg12
F61.0
sg13
F48.0
sg14
F0.0
sg15
F0.0
sg16
F778.0
sg17
I00
sg18
F409554.0
sg19
F-409554.0
sg20
F197091.0
sg21
F742.0
sg22
F1238.0
sg23
F1737629.0
sg24
F880290.0
sg25
F0.049273021001615507
sg26
F0.21621621621621623
sg27
F0.23019873632403695
sg28
F1.0
ssVPIRO JIM
p324
(dp325
g3
F0.0
sg4
F0.0
sg5
F0.0
sg6
F0.0
sg7
Vjim.piro@enron.com
p326
sg9
F0.0
sg10
F0.0
sg11
F16.0
sg12
F0.0
sg13
F1.0
sg14
F0.0
sg15
F0.0
sg16
F0.0
sg17
I00
sg18
F47304.0
sg19
F0.0
sg20
F0.0
sg21
F3.0
sg22
F58.0
sg23
F0.0
sg24
F47304.0
sg25
F0.0
sg26
F0.0625
sg27
F0.0
sg28
F0.0
ssVPOWERS WILLIAM
p327
(dp328
g3
F0.0
sg4
F0.0
sg5
F-17500.0
sg6
F17500.0
sg7
Vken.powers@enron.com
p329
sg9
F0.0
sg10
F0.0
sg11
F26.0
sg12
F0.0
sg13
F0.0
sg14
F0.0
sg15
F0.0
sg16
F0.0
sg17
I00
sg18
F0.0
sg19
F0.0
sg20
F0.0
sg21
F12.0
sg22
F653.0
sg23
F0.0
sg24
F0.0
sg25
F0.0
sg26
F0.0
sg27
F0.0
sg28
F0.0
ssVPRENTICE JAMES
p330
(dp331
g3
F0.0
sg4
F564348.0
sg5
F0.0
sg6
F0.0
sg7
Vjames.prentice@enron.com
p332
sg9
F886231.0
sg10
F0.0
sg11
F0.0
sg12
F0.0
sg13
F0.0
sg14
F0.0
sg15
F0.0
sg16
F0.0
sg17
I00
sg18
F208809.0
sg19
F0.0
sg20
F0.0
sg21
F0.0
sg22
F0.0
sg23
F564348.0
sg24
F1095040.0
sg25
F0.0
sg26
F0.0
sg27
F0.0
sg28
F0.8093138150204559
ssVREDMOND BRIAN L
p333
(dp334
g3
F0.0
sg4
F0.0
sg5
F0.0
sg6
F0.0
sg7
Vbrian.redmond@enron.com
p335
sg9
F7509039.0
sg10
F14689.0
sg11
F221.0
sg12
F204.0
sg13
F49.0
sg14
F0.0
sg15
F0.0
sg16
F0.0
sg17
I00
sg18
F381285.0
sg19
F0.0
sg20
F96840.0
sg21
F1063.0
sg22
F1671.0
sg23
F111529.0
sg24
F7890324.0
sg25
F0.12208258527827648
sg26
F0.22171945701357465
sg27
F0.0
sg28
F0.951676889314051
ssVREYNOLDS LAWRENCE
p336
(dp337
g3
F100000.0
sg4
F51365.0
sg5
F-200000.0
sg6
F0.0
sg7
L0L
sg9
F4160672.0
sg10
F8409.0
sg11
F0.0
sg12
F0.0
sg13
F0.0
sg14
F0.0
sg15
F156250.0
sg16
F202052.0
sg17
I00
sg18
F201483.0
sg19
F-140264.0
sg20
F76399.0
sg21
F0.0
sg22
F0.0
sg23
F394475.0
sg24
F4221891.0
sg25
F0.0
sg26
F0.0
sg27
F0.2535014893212498
sg28
F0.9854996256416853
ssVRICE KENNETH D
p338
(dp339
g3
F1750000.0
sg4
F0.0
sg5
F-3504386.0
sg6
F0.0
sg7
Vken.rice@enron.com
p340
sg9
F19794175.0
sg10
F46950.0
sg11
F18.0
sg12
F42.0
sg13
F4.0
sg14
F0.0
sg15
F1617011.0
sg16
F174839.0
sg17
I01
sg18
F2748364.0
sg19
F0.0
sg20
F420636.0
sg21
F864.0
sg22
F905.0
sg23
F505050.0
sg24
F22542539.0
sg25
F0.04640883977900553
sg26
F0.2222222222222222
sg27
F3.465003465003465
sg28
F0.8780809916753388
ssVRIEKER PAULA H
p341
(dp342
g3
F700000.0
sg4
F214678.0
sg5
F-100000.0
sg6
F0.0
sg7
Vpaula.rieker@enron.com
p343
sg9
F1635238.0
sg10
F33271.0
sg11
F82.0
sg12
F35.0
sg13
F48.0
sg14
F0.0
sg15
F0.0
sg16
F1950.0
sg17
I01
sg18
F283649.0
sg19
F0.0
sg20
F249201.0
sg21
F1258.0
sg22
F1328.0
sg23
F1099100.0
sg24
F1918887.0
sg25
F0.02635542168674699
sg26
F0.5853658536585366
sg27
F0.6368847238649804
sg28
F0.8521804566918219
ssVSAVAGE FRANK
p344
(dp345
g3
F0.0
sg4
F0.0
sg5
F-121284.0
sg6
F125034.0
sg7
L0L
sg9
F0.0
sg10
F0.0
sg11
F0.0
sg12
F0.0
sg13
F0.0
sg14
F0.0
sg15
F0.0
sg16
F0.0
sg17
I00
sg18
F0.0
sg19
F0.0
sg20
F0.0
sg21
F0.0
sg22
F0.0
sg23
F3750.0
sg24
F0.0
sg25
F0.0
sg26
F0.0
sg27
F0.0
sg28
F0.0
ssVSCRIMSHAW MATTHEW
p346
(dp347
g3
F0.0
sg4
F0.0
sg5
F0.0
sg6
F0.0
sg7
Vmatthew.scrimshaw@enron.com
p348
sg9
F759557.0
sg10
F0.0
sg11
F0.0
sg12
F0.0
sg13
F0.0
sg14
F0.0
sg15
F0.0
sg16
F0.0
sg17
I00
sg18
F0.0
sg19
F0.0
sg20
F0.0
sg21
F0.0
sg22
F0.0
sg23
F0.0
sg24
F759557.0
sg25
F0.0
sg26
F0.0
sg27
F0.0
sg28
F1.0
ssVSHANKMAN JEFFREY A
p349
(dp350
g3
F2000000.0
sg4
F0.0
sg5
F0.0
sg6
F0.0
sg7
Vjeffrey.shankman@enron.com
p351
sg9
F1441898.0
sg10
F178979.0
sg11
F2681.0
sg12
F94.0
sg13
F83.0
sg14
F0.0
sg15
F554422.0
sg16
F1191.0
sg17
I00
sg18
F630137.0
sg19
F0.0
sg20
F304110.0
sg21
F1730.0
sg22
F3221.0
sg23
F3038702.0
sg24
F2072035.0
sg25
F0.029183483390251473
sg26
F0.030958597538232
sg27
F0.6581757605714545
sg28
F0.6958849633331483
ssVSHAPIRO RICHARD S
p352
(dp353
g3
F650000.0
sg4
F0.0
sg5
F0.0
sg6
F0.0
sg7
Vrichard.shapiro@enron.com
p354
sg9
F607837.0
sg10
F137767.0
sg11
F1215.0
sg12
F74.0
sg13
F65.0
sg14
F0.0
sg15
F0.0
sg16
F705.0
sg17
I00
sg18
F379164.0
sg19
F0.0
sg20
F269076.0
sg21
F4527.0
sg22
F15149.0
sg23
F1057548.0
sg24
F987001.0
sg25
F0.0048848108786058485
sg26
F0.053497942386831275
sg27
F0.6146293123338137
sg28
F0.6158423345062467
ssVSHARP VICTORIA T
p355
(dp356
g3
F600000.0
sg4
F187469.0
sg5
F0.0
sg6
F0.0
sg7
Vvicki.sharp@enron.com
p357
sg9
F281073.0
sg10
F116337.0
sg11
F136.0
sg12
F24.0
sg13
F6.0
sg14
F0.0
sg15
F422158.0
sg16
F2401.0
sg17
I00
sg18
F213063.0
sg19
F0.0
sg20
F248146.0
sg21
F2477.0
sg22
F3136.0
sg23
F1576511.0
sg24
F494136.0
sg25
F0.007653061224489796
sg26
F0.04411764705882353
sg27
F0.38058725882661143
sg28
F0.5688170867939191
ssVSHELBY REX
p358
(dp359
g3
F200000.0
sg4
F0.0
sg5
F-4167.0
sg6
F0.0
sg7
Vrex.shelby@enron.com
p360
sg9
F1624396.0
sg10
F22884.0
sg11
F39.0
sg12
F13.0
sg13
F14.0
sg14
F0.0
sg15
F0.0
sg16
F1573324.0
sg17
I01
sg18
F869220.0
sg19
F0.0
sg20
F211844.0
sg21
F91.0
sg22
F225.0
sg23
F2003885.0
sg24
F2493616.0
sg25
F0.057777777777777775
sg26
F0.358974358974359
sg27
F0.09980612659908128
sg28
F0.6514218708895034
ssVSHERRICK JEFFREY B
p361
(dp362
g3
F0.0
sg4
F0.0
sg5
F0.0
sg6
F0.0
sg7
Vjeffrey.sherrick@enron.com
p363
sg9
F1426469.0
sg10
F0.0
sg11
F25.0
sg12
F39.0
sg13
F18.0
sg14
F0.0
sg15
F0.0
sg16
F0.0
sg17
I00
sg18
F405999.0
sg19
F0.0
sg20
F0.0
sg21
F583.0
sg22
F613.0
sg23
F0.0
sg24
F1832468.0
sg25
F0.0636215334420881
sg26
F0.72
sg27
F0.0
sg28
F0.7784414243522942
ssVSHERRIFF JOHN R
p364
(dp365
g3
F1500000.0
sg4
F0.0
sg5
F0.0
sg6
F0.0
sg7
Vjohn.sherriff@enron.com
p366
sg9
F1835558.0
sg10
F0.0
sg11
F92.0
sg12
F28.0
sg13
F23.0
sg14
F0.0
sg15
F554422.0
sg16
F1852186.0
sg17
I00
sg18
F1293424.0
sg19
F0.0
sg20
F428780.0
sg21
F2103.0
sg22
F3187.0
sg23
F4335388.0
sg24
F3128982.0
sg25
F0.008785691873235017
sg26
F0.25
sg27
F0.34598979376240374
sg28
F0.5866310512492562
ssVSKILLING JEFFREY K
p367
(dp368
g3
F5600000.0
sg4
F0.0
sg5
F0.0
sg6
F0.0
sg7
Vjeff.skilling@enron.com
p369
sg9
F19250000.0
sg10
F29336.0
sg11
F108.0
sg12
F88.0
sg13
F30.0
sg14
F0.0
sg15
F1920000.0
sg16
F22122.0
sg17
I01
sg18
F6843672.0
sg19
F0.0
sg20
F1111258.0
sg21
F2042.0
sg22
F3627.0
sg23
F8682716.0
sg24
F26093672.0
sg25
F0.0242624758753791
sg26
F0.2777777777777778
sg27
F0.6449594804206426
sg28
F0.7377267561269261
ssVSTABLER FRANK
p370
(dp371
g3
F500000.0
sg4
F0.0
sg5
F0.0
sg6
F0.0
sg7
Vfrank.stabler@enron.com
p372
sg9
F0.0
sg10
F16514.0
sg11
F0.0
sg12
F0.0
sg13
F0.0
sg14
F0.0
sg15
F0.0
sg16
F356071.0
sg17
I00
sg18
F511734.0
sg19
F0.0
sg20
F239502.0
sg21
F0.0
sg22
F0.0
sg23
F1112087.0
sg24
F511734.0
sg25
F0.0
sg26
F0.0
sg27
F0.44960511183027946
sg28
F0.0
ssVSULLIVAN-SHAKLOVITZ COLLEEN
p373
(dp374
g3
F100000.0
sg4
F181993.0
sg5
F0.0
sg6
F0.0
sg7
L0L
sg9
F1362375.0
sg10
F0.0
sg11
F0.0
sg12
F0.0
sg13
F0.0
sg14
F0.0
sg15
F554422.0
sg16
F162.0
sg17
I00
sg18
F0.0
sg19
F0.0
sg20
F162779.0
sg21
F0.0
sg22
F0.0
sg23
F999356.0
sg24
F1362375.0
sg25
F0.0
sg26
F0.0
sg27
F0.10006444150032621
sg28
F1.0
ssVSUNDE MARTIN
p375
(dp376
g3
F700000.0
sg4
F0.0
sg5
F0.0
sg6
F0.0
sg7
Vmarty.sunde@enron.com
p377
sg9
F0.0
sg10
F0.0
sg11
F38.0
sg12
F37.0
sg13
F13.0
sg14
F0.0
sg15
F476451.0
sg16
F111122.0
sg17
I00
sg18
F698920.0
sg19
F0.0
sg20
F257486.0
sg21
F2565.0
sg22
F2647.0
sg23
F1545059.0
sg24
F698920.0
sg25
F0.013978088401964487
sg26
F0.34210526315789475
sg27
F0.4530571324460749
sg28
F0.0
ssVTAYLOR MITCHELL S
p378
(dp379
g3
F600000.0
sg4
F227449.0
sg5
F0.0
sg6
F0.0
sg7
Vmitchell.taylor@enron.com
p380
sg9
F3181250.0
sg10
F0.0
sg11
F29.0
sg12
F0.0
sg13
F0.0
sg14
F0.0
sg15
F0.0
sg16
F0.0
sg17
I00
sg18
F563798.0
sg19
F0.0
sg20
F265214.0
sg21
F300.0
sg22
F533.0
sg23
F1092663.0
sg24
F3745048.0
sg25
F0.0
sg26
F0.0
sg27
F0.5491171568910085
sg28
F0.849455067064561
ssVTHE TRAVEL AGENCY IN THE PARK
p381
(dp382
g3
F0.0
sg4
F0.0
sg5
F0.0
sg6
F0.0
sg7
L0L
sg9
F0.0
sg10
F0.0
sg11
F0.0
sg12
F0.0
sg13
F0.0
sg14
F0.0
sg15
F0.0
sg16
F362096.0
sg17
I00
sg18
F0.0
sg19
F0.0
sg20
F0.0
sg21
F0.0
sg22
F0.0
sg23
F362096.0
sg24
F0.0
sg25
F0.0
sg26
F0.0
sg27
F0.0
sg28
F0.0
ssVTHORN TERENCE H
p383
(dp384
g3
F0.0
sg4
F16586.0
sg5
F0.0
sg6
F0.0
sg7
Vterence.thorn@enron.com
p385
sg9
F4452476.0
sg10
F46145.0
sg11
F41.0
sg12
F0.0
sg13
F0.0
sg14
F0.0
sg15
F200000.0
sg16
F426629.0
sg17
I00
sg18
F365320.0
sg19
F0.0
sg20
F222093.0
sg21
F73.0
sg22
F266.0
sg23
F911453.0
sg24
F4817796.0
sg25
F0.0
sg26
F0.0
sg27
F0.0
sg28
F0.9241727960254025
ssVTILNEY ELIZABETH A
p386
(dp387
g3
F300000.0
sg4
F0.0
sg5
F-575000.0
sg6
F0.0
sg7
Velizabeth.tilney@enron.com
p388
sg9
F591250.0
sg10
F0.0
sg11
F19.0
sg12
F10.0
sg13
F11.0
sg14
F0.0
sg15
F275000.0
sg16
F152055.0
sg17
I00
sg18
F576792.0
sg19
F0.0
sg20
F247338.0
sg21
F379.0
sg22
F460.0
sg23
F399393.0
sg24
F1168042.0
sg25
F0.021739130434782608
sg26
F0.5789473684210527
sg27
F0.7511398547295521
sg28
F0.5061889897794771
ssVUMANOFF ADAM S
p389
(dp390
g3
F788750.0
sg4
F0.0
sg5
F0.0
sg6
F0.0
sg7
Vadam.umanoff@enron.com
p391
sg9
F0.0
sg10
F53122.0
sg11
F18.0
sg12
F12.0
sg13
F0.0
sg14
F0.0
sg15
F0.0
sg16
F0.0
sg17
I00
sg18
F0.0
sg19
F0.0
sg20
F288589.0
sg21
F41.0
sg22
F111.0
sg23
F1130461.0
sg24
F0.0
sg25
F0.10810810810810811
sg26
F0.0
sg27
F0.6977242027809893
sg28
F0.0
ssVURQUHART JOHN A
p392
(dp393
g3
F0.0
sg4
F0.0
sg5
F-36666.0
sg6
F36666.0
sg7
L0L
sg9
F0.0
sg10
F228656.0
sg11
F0.0
sg12
F0.0
sg13
F0.0
sg14
F0.0
sg15
F0.0
sg16
F0.0
sg17
I00
sg18
F0.0
sg19
F0.0
sg20
F0.0
sg21
F0.0
sg22
F0.0
sg23
F228656.0
sg24
F0.0
sg25
F0.0
sg26
F0.0
sg27
F0.0
sg28
F0.0
ssVWAKEHAM JOHN
p394
(dp395
g3
F0.0
sg4
F0.0
sg5
F0.0
sg6
F109298.0
sg7
L0L
sg9
F0.0
sg10
F103773.0
sg11
F0.0
sg12
F0.0
sg13
F0.0
sg14
F0.0
sg15
F0.0
sg16
F0.0
sg17
I00
sg18
F0.0
sg19
F0.0
sg20
F0.0
sg21
F0.0
sg22
F0.0
sg23
F213071.0
sg24
F0.0
sg25
F0.0
sg26
F0.0
sg27
F0.0
sg28
F0.0
ssVWALLS JR ROBERT H
p396
(dp397
g3
F850000.0
sg4
F0.0
sg5
F0.0
sg6
F0.0
sg7
Vrob.walls@enron.com
p398
sg9
F4346544.0
sg10
F50936.0
sg11
F146.0
sg12
F17.0
sg13
F0.0
sg14
F0.0
sg15
F540751.0
sg16
F2.0
sg17
I00
sg18
F1552453.0
sg19
F0.0
sg20
F357091.0
sg21
F215.0
sg22
F671.0
sg23
F1798780.0
sg24
F5898997.0
sg25
F0.02533532041728763
sg26
F0.0
sg27
F0.47254250102847484
sg28
F0.7368276335790643
ssVWALTERS GARETH W
p399
(dp400
g3
F0.0
sg4
F53625.0
sg5
F0.0
sg6
F0.0
sg7
L0L
sg9
F1030329.0
sg10
F33785.0
sg11
F0.0
sg12
F0.0
sg13
F0.0
sg14
F0.0
sg15
F0.0
sg16
F0.0
sg17
I00
sg18
F0.0
sg19
F0.0
sg20
F0.0
sg21
F0.0
sg22
F0.0
sg23
F87410.0
sg24
F1030329.0
sg25
F0.0
sg26
F0.0
sg27
F0.0
sg28
F1.0
ssVWASAFF GEORGE
p401
(dp402
g3
F325000.0
sg4
F831299.0
sg5
F-583325.0
sg6
F0.0
sg7
Vgeorge.wasaff@enron.com
p403
sg9
F1668260.0
sg10
F0.0
sg11
F30.0
sg12
F22.0
sg13
F7.0
sg14
F0.0
sg15
F200000.0
sg16
F1425.0
sg17
I00
sg18
F388167.0
sg19
F0.0
sg20
F259996.0
sg21
F337.0
sg22
F400.0
sg23
F1034395.0
sg24
F2056427.0
sg25
F0.055
sg26
F0.23333333333333334
sg27
F0.3141933207333755
sg28
F0.8112420231790382
ssVWESTFAHL RICHARD K
p404
(dp405
g3
F0.0
sg4
F0.0
sg5
F-10800.0
sg6
F0.0
sg7
Vdick.westfahl@enron.com
p406
sg9
F0.0
sg10
F51870.0
sg11
F0.0
sg12
F0.0
sg13
F0.0
sg14
F0.0
sg15
F256191.0
sg16
F401130.0
sg17
I00
sg18
F384930.0
sg19
F0.0
sg20
F63744.0
sg21
F0.0
sg22
F0.0
sg23
F762135.0
sg24
F384930.0
sg25
F0.0
sg26
F0.0
sg27
F0.0
sg28
F0.0
ssVWHALEY DAVID A
p407
(dp408
g3
F0.0
sg4
F0.0
sg5
F0.0
sg6
F0.0
sg7
L0L
sg9
F98718.0
sg10
F0.0
sg11
F0.0
sg12
F0.0
sg13
F0.0
sg14
F0.0
sg15
F0.0
sg16
F0.0
sg17
I00
sg18
F0.0
sg19
F0.0
sg20
F0.0
sg21
F0.0
sg22
F0.0
sg23
F0.0
sg24
F98718.0
sg25
F0.0
sg26
F0.0
sg27
F0.0
sg28
F1.0
ssVWHALLEY LAWRENCE G
p409
(dp410
g3
F3000000.0
sg4
F0.0
sg5
F0.0
sg6
F0.0
sg7
Vgreg.whalley@enron.com
p411
sg9
F3282960.0
sg10
F57838.0
sg11
F556.0
sg12
F186.0
sg13
F24.0
sg14
F0.0
sg15
F808346.0
sg16
F301026.0
sg17
I00
sg18
F2796177.0
sg19
F0.0
sg20
F510364.0
sg21
F3920.0
sg22
F6019.0
sg23
F4677574.0
sg24
F6079137.0
sg25
F0.03090214321315833
sg26
F0.04316546762589928
sg27
F0.6413581057189047
sg28
F0.5400371796194098
ssVWHITE JR THOMAS E
p412
(dp413
g3
F450000.0
sg4
F0.0
sg5
F0.0
sg6
F0.0
sg7
Vthomas.white@enron.com
p414
sg9
F1297049.0
sg10
F81353.0
sg11
F0.0
sg12
F0.0
sg13
F0.0
sg14
F0.0
sg15
F0.0
sg16
F1085463.0
sg17
I00
sg18
F13847074.0
sg19
F0.0
sg20
F317543.0
sg21
F0.0
sg22
F0.0
sg23
F1934359.0
sg24
F15144123.0
sg25
F0.0
sg26
F0.0
sg27
F0.23263520370313887
sg28
F0.08564701963923563
ssVWINOKUR JR. HERBERT S
p415
(dp416
g3
F0.0
sg4
F0.0
sg5
F-25000.0
sg6
F108579.0
sg7
L0L
sg9
F0.0
sg10
F1413.0
sg11
F0.0
sg12
F0.0
sg13
F0.0
sg14
F0.0
sg15
F0.0
sg16
F0.0
sg17
I00
sg18
F0.0
sg19
F0.0
sg20
F0.0
sg21
F0.0
sg22
F0.0
sg23
F84992.0
sg24
F0.0
sg25
F0.0
sg26
F0.0
sg27
F0.0
sg28
F0.0
ssVWODRASKA JOHN
p417
(dp418
g3
F0.0
sg4
F0.0
sg5
F0.0
sg6
F0.0
sg7
Vjohn.wodraska@enron.com
p419
sg9
F0.0
sg10
F0.0
sg11
F0.0
sg12
F0.0
sg13
F0.0
sg14
F0.0
sg15
F0.0
sg16
F189583.0
sg17
I00
sg18
F0.0
sg19
F0.0
sg20
F0.0
sg21
F0.0
sg22
F0.0
sg23
F189583.0
sg24
F0.0
sg25
F0.0
sg26
F0.0
sg27
F0.0
sg28
F0.0
ssVWROBEL BRUCE
p420
(dp421
g3
F0.0
sg4
F0.0
sg5
F0.0
sg6
F0.0
sg7
L0L
sg9
F139130.0
sg10
F0.0
sg11
F0.0
sg12
F0.0
sg13
F0.0
sg14
F0.0
sg15
F0.0
sg16
F0.0
sg17
I00
sg18
F0.0
sg19
F0.0
sg20
F0.0
sg21
F0.0
sg22
F0.0
sg23
F0.0
sg24
F139130.0
sg25
F0.0
sg26
F0.0
sg27
F0.0
sg28
F1.0
ssVYEAGER F SCOTT
p422
(dp423
g3
F0.0
sg4
F0.0
sg5
F0.0
sg6
F0.0
sg7
Vscott.yeager@enron.com
p424
sg9
F8308552.0
sg10
F53947.0
sg11
F0.0
sg12
F0.0
sg13
F0.0
sg14
F0.0
sg15
F0.0
sg16
F147950.0
sg17
I01
sg18
F3576206.0
sg19
F0.0
sg20
F158403.0
sg21
F0.0
sg22
F0.0
sg23
F360300.0
sg24
F11884758.0
sg25
F0.0
sg26
F0.0
sg27
F0.0
sg28
F0.6990930736662875
ssVYEAP SOON
p425
(dp426
g3
F0.0
sg4
F0.0
sg5
F0.0
sg6
F0.0
sg7
L0L
sg9
F192758.0
sg10
F55097.0
sg11
F0.0
sg12
F0.0
sg13
F0.0
sg14
F0.0
sg15
F0.0
sg16
F0.0
sg17
I00
sg18
F0.0
sg19
F0.0
sg20
F0.0
sg21
F0.0
sg22
F0.0
sg23
F55097.0
sg24
F192758.0
sg25
F0.0
sg26
F0.0
sg27
F0.0
sg28
F1.0
ss.